; Function Attrs: mustprogress nofree norecurse nosync nounwind willreturn memory(read, inaccessiblemem: none) uwtable
define dso_local noundef zeroext i1 @_ZN4absl24synchronization_internal11GraphCycles7HasNodeENS0_7GraphIdE(ptr noundef nonnull readonly align 8 captures(none) dereferenceable(8) %0, i64 %1) local_unnamed_addr #7 align 2 {
  %3 = load ptr, ptr %0, align 8, !tbaa !4
  %.val = load ptr, ptr %3, align 8, !tbaa !19
  %4 = and i64 %1, 4294967295
  %5 = getelementptr inbounds nuw ptr, ptr %.val, i64 %4
  %6 = load ptr, ptr %5, align 8, !tbaa !20
  %7 = getelementptr inbounds nuw i8, ptr %6, i64 4
  %8 = load i32, ptr %7, align 4, !tbaa !47
  %9 = lshr i64 %1, 32
  %10 = trunc nuw i64 %9 to i32
  %11 = icmp eq i32 %8, %10
  %12 = icmp ne ptr %6, null
  %13 = and i1 %12, %11
  ret i1 %13
}